target datalayout = "e-m:e-p270:32:32-p271:32:32-p272:64:64-i64:64-i128:128-f80:128-n8:16:32:64-S128"
target triple = "x86_64-pc-linux-gnu"

%struct.SwsInternal = type { %struct.SwsContext, ptr, ptr, ptr, ptr, i32, [2 x ptr], i32, i32, ptr, i32, i32, i32, i32, i32, i32, i32, i32, i32, i32, i32, i32, i32, i32, i32, i32, i32, i32, ptr, ptr, %struct.RangeList, [3 x ptr], [2 x [4 x i32]], [2 x [4 x ptr]], i32, double, i32, ptr, ptr, i32, [2 x i32], i32, ptr, ptr, [256 x i32], [256 x i32], [256 x float], i32, i32, ptr, i32, ptr, ptr, ptr, ptr, ptr, ptr, ptr, ptr, i32, i32, i32, i32, i32, i32, ptr, ptr, i32, i32, i32, ptr, [8 x i8], [1280 x i32], [1280 x ptr], [1280 x ptr], [1280 x ptr], [176 x i32], [4 x ptr], i32, i32, i32, [4 x i32], [4 x i32], i32, i32, i32, i32, i32, i32, i32, i32, i32, i32, i64, i64, i64, i64, i64, i64, i64, i64, i64, i64, i64, [1024 x i32], [1024 x i32], i32, i64, i64, i64, i64, i64, [1024 x i32], i64, i64, [8 x i16], [8 x i32], ptr, ptr, i32, ptr, ptr, ptr, ptr, [3 x [4 x i16]], [3 x [4 x i16]], ptr, ptr, ptr, ptr, ptr, ptr, ptr, ptr, ptr, ptr, ptr, ptr, ptr, ptr, ptr, ptr, ptr, ptr, ptr, ptr, i32, i32, i64, i64, i32, ptr, i32, ptr, i32, i32, i32, i32, i32, ptr }
%struct.SwsContext = type { ptr, ptr, i32, [2 x double], i32, i32, i32, i32, i32, i32, i32, i32, i32, i32, i32, i32, i32, i32, i32, i32, i32 }
%struct.RangeList = type { ptr, i32, i32 }

@deinterleaveBytes = external global ptr, align 8

; Function Attrs: nounwind uwtable
define void @ff_copyPlane(ptr noundef %0, i32 noundef %1, i32 noundef %2, i32 noundef %3, i32 noundef %4, ptr noundef %5, i32 noundef %6) #0 {
  %8 = alloca ptr, align 8
  %9 = alloca i32, align 4
  %10 = alloca i32, align 4
  %11 = alloca i32, align 4
  %12 = alloca i32, align 4
  %13 = alloca ptr, align 8
  %14 = alloca i32, align 4
  %15 = alloca i32, align 4
  store ptr %0, ptr %8, align 8, !tbaa !4
  store i32 %1, ptr %9, align 4, !tbaa !9
  store i32 %2, ptr %10, align 4, !tbaa !9
  store i32 %3, ptr %11, align 4, !tbaa !9
  store i32 %4, ptr %12, align 4, !tbaa !9
  store ptr %5, ptr %13, align 8, !tbaa !4
  store i32 %6, ptr %14, align 4, !tbaa !9
  %16 = load i32, ptr %14, align 4, !tbaa !9
  %17 = load i32, ptr %10, align 4, !tbaa !9
  %18 = mul nsw i32 %16, %17
  %19 = load ptr, ptr %13, align 8, !tbaa !4
  %20 = sext i32 %18 to i64
  %21 = getelementptr inbounds i8, ptr %19, i64 %20
  store ptr %21, ptr %13, align 8, !tbaa !4
  %22 = load i32, ptr %14, align 4, !tbaa !9
  %23 = load i32, ptr %9, align 4, !tbaa !9
  %24 = icmp eq i32 %22, %23
  br i1 %24, label %25, label %35

25:                                               ; preds = %7
  %26 = load i32, ptr %9, align 4, !tbaa !9
  %27 = icmp sgt i32 %26, 0
  br i1 %27, label %28, label %35

28:                                               ; preds = %25
  %29 = load ptr, ptr %13, align 8, !tbaa !4
  %30 = load ptr, ptr %8, align 8, !tbaa !4
  %31 = load i32, ptr %11, align 4, !tbaa !9
  %32 = load i32, ptr %14, align 4, !tbaa !9
  %33 = mul nsw i32 %31, %32
  %34 = sext i32 %33 to i64
  call void @llvm.memcpy.p0.p0.i64(ptr align 1 %29, ptr align 1 %30, i64 %34, i1 false)
  br label %57

35:                                               ; preds = %25, %7
  call void @llvm.lifetime.start.p0(i64 4, ptr %15) #11
  store i32 0, ptr %15, align 4, !tbaa !9
  br label %36

36:                                               ; preds = %53, %35
  %37 = load i32, ptr %15, align 4, !tbaa !9
  %38 = load i32, ptr %11, align 4, !tbaa !9
  %39 = icmp slt i32 %37, %38
  br i1 %39, label %40, label %56

40:                                               ; preds = %36
  %41 = load ptr, ptr %13, align 8, !tbaa !4
  %42 = load ptr, ptr %8, align 8, !tbaa !4
  %43 = load i32, ptr %12, align 4, !tbaa !9
  %44 = sext i32 %43 to i64
  call void @llvm.memcpy.p0.p0.i64(ptr align 1 %41, ptr align 1 %42, i64 %44, i1 false)
  %45 = load i32, ptr %9, align 4, !tbaa !9
  %46 = load ptr, ptr %8, align 8, !tbaa !4
  %47 = sext i32 %45 to i64
  %48 = getelementptr inbounds i8, ptr %46, i64 %47
  store ptr %48, ptr %8, align 8, !tbaa !4
  %49 = load i32, ptr %14, align 4, !tbaa !9
  %50 = load ptr, ptr %13, align 8, !tbaa !4
  %51 = sext i32 %49 to i64
  %52 = getelementptr inbounds i8, ptr %50, i64 %51
  store ptr %52, ptr %13, align 8, !tbaa !4
  br label %53

53:                                               ; preds = %40
  %54 = load i32, ptr %15, align 4, !tbaa !9
  %55 = add nsw i32 %54, 1
  store i32 %55, ptr %15, align 4, !tbaa !9
  br label %36, !llvm.loop !11

56:                                               ; preds = %36
  call void @llvm.lifetime.end.p0(i64 4, ptr %15) #11
  br label %57

57:                                               ; preds = %56, %28
  ret void
}

; Function Attrs: nounwind uwtable
define internal i32 @nv24ToPlanarWrapper(ptr noundef %0, ptr noundef %1, ptr noundef %2, i32 noundef %3, i32 noundef %4, ptr noundef %5, ptr noundef %6) #0 {
  %8 = alloca ptr, align 8
  %9 = alloca ptr, align 8
  %10 = alloca ptr, align 8
  %11 = alloca i32, align 4
  %12 = alloca i32, align 4
  %13 = alloca ptr, align 8
  %14 = alloca ptr, align 8
  %15 = alloca ptr, align 8
  %16 = alloca ptr, align 8
  store ptr %0, ptr %8, align 8, !tbaa !13
  store ptr %1, ptr %9, align 8, !tbaa !52
  store ptr %2, ptr %10, align 8, !tbaa !54
  store i32 %3, ptr %11, align 4, !tbaa !9
  store i32 %4, ptr %12, align 4, !tbaa !9
  store ptr %5, ptr %13, align 8, !tbaa !52
  store ptr %6, ptr %14, align 8, !tbaa !54
  call void @llvm.lifetime.start.p0(i64 8, ptr %15) #11
  %17 = load ptr, ptr %13, align 8, !tbaa !52
  %18 = getelementptr inbounds ptr, ptr %17, i64 1
  %19 = load ptr, ptr %18, align 8, !tbaa !4
  %20 = load ptr, ptr %14, align 8, !tbaa !54
  %21 = getelementptr inbounds i32, ptr %20, i64 1
  %22 = load i32, ptr %21, align 4, !tbaa !9
  %23 = load i32, ptr %11, align 4, !tbaa !9
  %24 = mul nsw i32 %22, %23
  %25 = sext i32 %24 to i64
  %26 = getelementptr inbounds i8, ptr %19, i64 %25
  store ptr %26, ptr %15, align 8, !tbaa !4
  call void @llvm.lifetime.start.p0(i64 8, ptr %16) #11
  %27 = load ptr, ptr %13, align 8, !tbaa !52
  %28 = getelementptr inbounds ptr, ptr %27, i64 2
  %29 = load ptr, ptr %28, align 8, !tbaa !4
  %30 = load ptr, ptr %14, align 8, !tbaa !54
  %31 = getelementptr inbounds i32, ptr %30, i64 2
  %32 = load i32, ptr %31, align 4, !tbaa !9
  %33 = load i32, ptr %11, align 4, !tbaa !9
  %34 = mul nsw i32 %32, %33
  %35 = sext i32 %34 to i64
  %36 = getelementptr inbounds i8, ptr %29, i64 %35
  store ptr %36, ptr %16, align 8, !tbaa !4
  %37 = load ptr, ptr %9, align 8, !tbaa !52
  %38 = getelementptr inbounds ptr, ptr %37, i64 0
  %39 = load ptr, ptr %38, align 8, !tbaa !4
  %40 = load ptr, ptr %10, align 8, !tbaa !54
  %41 = getelementptr inbounds i32, ptr %40, i64 0
  %42 = load i32, ptr %41, align 4, !tbaa !9
  %43 = load i32, ptr %11, align 4, !tbaa !9
  %44 = load i32, ptr %12, align 4, !tbaa !9
  %45 = load ptr, ptr %8, align 8, !tbaa !13
  %46 = getelementptr inbounds nuw %struct.SwsInternal, ptr %45, i32 0, i32 0
  %47 = getelementptr inbounds nuw %struct.SwsContext, ptr %46, i32 0, i32 8
  %48 = load i32, ptr %47, align 8, !tbaa !55
  %49 = load ptr, ptr %13, align 8, !tbaa !52
  %50 = getelementptr inbounds ptr, ptr %49, i64 0
  %51 = load ptr, ptr %50, align 8, !tbaa !4
  %52 = load ptr, ptr %14, align 8, !tbaa !54
  %53 = getelementptr inbounds i32, ptr %52, i64 0
  %54 = load i32, ptr %53, align 4, !tbaa !9
  call void @ff_copyPlane(ptr noundef %39, i32 noundef %42, i32 noundef %43, i32 noundef %44, i32 noundef %48, ptr noundef %51, i32 noundef %54)
  %55 = load ptr, ptr %8, align 8, !tbaa !13
  %56 = getelementptr inbounds nuw %struct.SwsInternal, ptr %55, i32 0, i32 0
  %57 = getelementptr inbounds nuw %struct.SwsContext, ptr %56, i32 0, i32 12
  %58 = load i32, ptr %57, align 8, !tbaa !15
  %59 = icmp eq i32 %58, 188
  br i1 %59, label %60, label %80

60:                                               ; preds = %7
  %61 = load ptr, ptr @deinterleaveBytes, align 8, !tbaa !56
  %62 = load ptr, ptr %9, align 8, !tbaa !52
  %63 = getelementptr inbounds ptr, ptr %62, i64 1
  %64 = load ptr, ptr %63, align 8, !tbaa !4
  %65 = load ptr, ptr %15, align 8, !tbaa !4
  %66 = load ptr, ptr %16, align 8, !tbaa !4
  %67 = load ptr, ptr %8, align 8, !tbaa !13
  %68 = getelementptr inbounds nuw %struct.SwsInternal, ptr %67, i32 0, i32 10
  %69 = load i32, ptr %68, align 8, !tbaa !57
  %70 = load i32, ptr %12, align 4, !tbaa !9
  %71 = load ptr, ptr %10, align 8, !tbaa !54
  %72 = getelementptr inbounds i32, ptr %71, i64 1
  %73 = load i32, ptr %72, align 4, !tbaa !9
  %74 = load ptr, ptr %14, align 8, !tbaa !54
  %75 = getelementptr inbounds i32, ptr %74, i64 1
  %76 = load i32, ptr %75, align 4, !tbaa !9
  %77 = load ptr, ptr %14, align 8, !tbaa !54
  %78 = getelementptr inbounds i32, ptr %77, i64 2
  %79 = load i32, ptr %78, align 4, !tbaa !9
  call void %61(ptr noundef %64, ptr noundef %65, ptr noundef %66, i32 noundef %69, i32 noundef %70, i32 noundef %73, i32 noundef %76, i32 noundef %79)
  br label %100

80:                                               ; preds = %7
  %81 = load ptr, ptr @deinterleaveBytes, align 8, !tbaa !56
  %82 = load ptr, ptr %9, align 8, !tbaa !52
  %83 = getelementptr inbounds ptr, ptr %82, i64 1
  %84 = load ptr, ptr %83, align 8, !tbaa !4
  %85 = load ptr, ptr %16, align 8, !tbaa !4
  %86 = load ptr, ptr %15, align 8, !tbaa !4
  %87 = load ptr, ptr %8, align 8, !tbaa !13
  %88 = getelementptr inbounds nuw %struct.SwsInternal, ptr %87, i32 0, i32 10
  %89 = load i32, ptr %88, align 8, !tbaa !57
  %90 = load i32, ptr %12, align 4, !tbaa !9
  %91 = load ptr, ptr %10, align 8, !tbaa !54
  %92 = getelementptr inbounds i32, ptr %91, i64 1
  %93 = load i32, ptr %92, align 4, !tbaa !9
  %94 = load ptr, ptr %14, align 8, !tbaa !54
  %95 = getelementptr inbounds i32, ptr %94, i64 2
  %96 = load i32, ptr %95, align 4, !tbaa !9
  %97 = load ptr, ptr %14, align 8, !tbaa !54
  %98 = getelementptr inbounds i32, ptr %97, i64 1
  %99 = load i32, ptr %98, align 4, !tbaa !9
  call void %81(ptr noundef %84, ptr noundef %85, ptr noundef %86, i32 noundef %89, i32 noundef %90, i32 noundef %93, i32 noundef %96, i32 noundef %99)
  br label %100

100:                                              ; preds = %80, %60
  %101 = load i32, ptr %12, align 4, !tbaa !9
  call void @llvm.lifetime.end.p0(i64 8, ptr %16) #11
  call void @llvm.lifetime.end.p0(i64 8, ptr %15) #11
  ret i32 %101
}