; Function Attrs: nounwind uwtable
define internal noundef i32 @nv24ToPlanarWrapper(ptr noundef readonly captures(none) %0, ptr noundef readonly captures(none) %1, ptr noundef readonly captures(none) %2, i32 noundef %3, i32 noundef returned %4, ptr noundef readonly captures(none) %5, ptr noundef readonly captures(none) %6) #3 {
  %8 = getelementptr inbounds nuw i8, ptr %5, i64 8
  %9 = load ptr, ptr %8, align 8, !tbaa !49
  %10 = getelementptr inbounds nuw i8, ptr %6, i64 4
  %11 = load i32, ptr %10, align 4, !tbaa !48
  %12 = mul nsw i32 %11, %3
  %13 = sext i32 %12 to i64
  %14 = getelementptr inbounds i8, ptr %9, i64 %13
  %15 = getelementptr inbounds nuw i8, ptr %5, i64 16
  %16 = load ptr, ptr %15, align 8, !tbaa !49
  %17 = getelementptr inbounds nuw i8, ptr %6, i64 8
  %18 = load i32, ptr %17, align 4, !tbaa !48
  %19 = mul nsw i32 %18, %3
  %20 = sext i32 %19 to i64
  %21 = getelementptr inbounds i8, ptr %16, i64 %20
  %22 = load ptr, ptr %1, align 8, !tbaa !49
  %23 = load i32, ptr %2, align 4, !tbaa !48
  %24 = getelementptr inbounds nuw i8, ptr %0, i64 56
  %25 = load i32, ptr %24, align 8, !tbaa !50
  %26 = load ptr, ptr %5, align 8, !tbaa !49
  %27 = load i32, ptr %6, align 4, !tbaa !48
  %28 = mul nsw i32 %27, %3
  %29 = sext i32 %28 to i64
  %30 = getelementptr inbounds i8, ptr %26, i64 %29
  %31 = icmp eq i32 %27, %23
  %32 = icmp sgt i32 %23, 0
  %or.cond.i = and i1 %32, %31
  br i1 %or.cond.i, label %37, label %.preheader.i

.preheader.i:                                     ; preds = %7
  %33 = icmp sgt i32 %4, 0
  br i1 %33, label %.lr.ph.i, label %ff_copyPlane.exit

.lr.ph.i:                                         ; preds = %.preheader.i
  %34 = sext i32 %25 to i64
  %35 = sext i32 %23 to i64
  %36 = sext i32 %27 to i64
  br label %40

37:                                               ; preds = %7
  %38 = mul nsw i32 %23, %4
  %39 = sext i32 %38 to i64
  tail call void @llvm.memcpy.p0.p0.i64(ptr align 1 %30, ptr readonly align 1 %22, i64 %39, i1 false)
  br label %ff_copyPlane.exit

40:                                               ; preds = %40, %.lr.ph.i
  %.025.i = phi i32 [ 0, %.lr.ph.i ], [ %43, %40 ]
  %.02024.i = phi ptr [ %22, %.lr.ph.i ], [ %41, %40 ]
  %.02123.i = phi ptr [ %30, %.lr.ph.i ], [ %42, %40 ]
  tail call void @llvm.memcpy.p0.p0.i64(ptr align 1 %.02123.i, ptr align 1 %.02024.i, i64 %34, i1 false)
  %41 = getelementptr inbounds i8, ptr %.02024.i, i64 %35
  %42 = getelementptr inbounds i8, ptr %.02123.i, i64 %36
  %43 = add nuw nsw i32 %.025.i, 1
  %exitcond.not.i = icmp eq i32 %43, %4
  br i1 %exitcond.not.i, label %ff_copyPlane.exit, label %40, !llvm.loop !4

ff_copyPlane.exit:                                ; preds = %40, %.preheader.i, %37
  %44 = getelementptr inbounds nuw i8, ptr %0, i64 72
  %45 = load i32, ptr %44, align 8, !tbaa !6
  %46 = icmp eq i32 %45, 188
  %47 = load ptr, ptr @deinterleaveBytes, align 8, !tbaa !51
  %48 = getelementptr inbounds nuw i8, ptr %1, i64 8
  %49 = load ptr, ptr %48, align 8, !tbaa !49
  %50 = getelementptr inbounds nuw i8, ptr %0, i64 184
  %51 = load i32, ptr %50, align 8, !tbaa !52
  %52 = getelementptr inbounds nuw i8, ptr %2, i64 4
  %53 = load i32, ptr %52, align 4, !tbaa !48
  br i1 %46, label %54, label %57

54:                                               ; preds = %ff_copyPlane.exit
  %55 = load i32, ptr %10, align 4, !tbaa !48
  %56 = load i32, ptr %17, align 4, !tbaa !48
  tail call void %47(ptr noundef %49, ptr noundef %14, ptr noundef %21, i32 noundef %51, i32 noundef %4, i32 noundef %53, i32 noundef %55, i32 noundef %56) #13
  br label %60

57:                                               ; preds = %ff_copyPlane.exit
  %58 = load i32, ptr %17, align 4, !tbaa !48
  %59 = load i32, ptr %10, align 4, !tbaa !48
  tail call void %47(ptr noundef %49, ptr noundef %21, ptr noundef %14, i32 noundef %51, i32 noundef %4, i32 noundef %53, i32 noundef %58, i32 noundef %59) #13
  br label %60

60:                                               ; preds = %57, %54
  ret i32 %4
}